target datalayout = "e-m:e-p270:32:32-p271:32:32-p272:64:64-i64:64-i128:128-f80:128-n8:16:32:64-S128"
target triple = "x86_64-pc-linux-gnu"

%struct.expert_field = type { i32, i32 }

@hf_cip_ssupervisor_safety_configuration_id_snn_timestamp = internal global i32 0, align 4
@hf_cip_ssupervisor_safety_configuration_id_snn_date = internal global i32 0, align 4
@hf_cip_ssupervisor_safety_configuration_id_snn_time = internal global i32 0, align 4
@hf_cip_ssupervisor_safety_configuration_id_sccrc = internal global i32 0, align 4
@ei_mal_ssupervisor_safety_configuration_id = internal global %struct.expert_field zeroinitializer, align 4

; Function Attrs: null_pointer_is_valid sspstrong uwtable
define hidden void @dissect_cipsafety_snn(ptr noundef %0, ptr noundef %1, ptr noundef %2, i32 noundef %3, i32 noundef %4, i32 noundef %5, i32 noundef %6) #0 {
  %8 = alloca ptr, align 8
  %9 = alloca ptr, align 8
  %10 = alloca ptr, align 8
  %11 = alloca i32, align 4
  %12 = alloca i32, align 4
  %13 = alloca i32, align 4
  %14 = alloca i32, align 4
  %15 = alloca i16, align 2
  store ptr %0, ptr %8, align 8
  store ptr %1, ptr %9, align 8
  store ptr %2, ptr %10, align 8
  store i32 %3, ptr %11, align 4
  store i32 %4, ptr %12, align 4
  store i32 %5, ptr %13, align 4
  store i32 %6, ptr %14, align 4
  call void @llvm.lifetime.start.p0(i64 2, ptr %15) #11
  %16 = load ptr, ptr %9, align 8
  %17 = load i32, ptr %11, align 4
  %18 = add i32 %17, 4
  %19 = call zeroext i16 @tvb_get_letohs(ptr noundef %16, i32 noundef %18)
  store i16 %19, ptr %15, align 2
  %20 = load i16, ptr %15, align 2
  %21 = zext i16 %20 to i32
  %22 = icmp sge i32 %21, 11688
  br i1 %22, label %23, label %32

23:                                               ; preds = %7
  %24 = load i16, ptr %15, align 2
  %25 = zext i16 %24 to i32
  %26 = icmp sle i32 %25, 65534
  br i1 %26, label %27, label %32

27:                                               ; preds = %23
  %28 = load ptr, ptr %8, align 8
  %29 = load ptr, ptr %9, align 8
  %30 = load i32, ptr %11, align 4
  %31 = load i32, ptr %12, align 4
  call void @dissect_cip_date_and_time(ptr noundef %28, ptr noundef %29, i32 noundef %30, i32 noundef %31)
  br label %44

32:                                               ; preds = %23, %7
  %33 = load ptr, ptr %8, align 8
  %34 = load i32, ptr %14, align 4
  %35 = load ptr, ptr %9, align 8
  %36 = load i32, ptr %11, align 4
  %37 = call ptr @proto_tree_add_item(ptr noundef %33, i32 noundef %34, ptr noundef %35, i32 noundef %36, i32 noundef 4, i32 noundef -2147483648)
  %38 = load ptr, ptr %8, align 8
  %39 = load i32, ptr %13, align 4
  %40 = load ptr, ptr %9, align 8
  %41 = load i32, ptr %11, align 4
  %42 = add i32 %41, 4
  %43 = call ptr @proto_tree_add_item(ptr noundef %38, i32 noundef %39, ptr noundef %40, i32 noundef %42, i32 noundef 2, i32 noundef -2147483648)
  br label %44

44:                                               ; preds = %32, %27
  call void @llvm.lifetime.end.p0(i64 2, ptr %15) #11
  ret void
}

; Function Attrs: null_pointer_is_valid sspstrong uwtable
define internal i32 @dissect_s_supervisor_safety_configuration_id(ptr noundef %0, ptr noundef %1, ptr noundef %2, ptr noundef %3, i32 noundef %4, i32 noundef %5) #0 {
  %7 = alloca i32, align 4
  %8 = alloca ptr, align 8
  %9 = alloca ptr, align 8
  %10 = alloca ptr, align 8
  %11 = alloca ptr, align 8
  %12 = alloca i32, align 4
  %13 = alloca i32, align 4
  store ptr %0, ptr %8, align 8
  store ptr %1, ptr %9, align 8
  store ptr %2, ptr %10, align 8
  store ptr %3, ptr %11, align 8
  store i32 %4, ptr %12, align 4
  store i32 %5, ptr %13, align 4
  %14 = load i32, ptr %13, align 4
  %15 = icmp slt i32 %14, 10
  br i1 %15, label %16, label %21

16:                                               ; preds = %6
  %17 = load ptr, ptr %8, align 8
  %18 = load ptr, ptr %10, align 8
  %19 = call ptr @expert_add_info(ptr noundef %17, ptr noundef %18, ptr noundef @ei_mal_ssupervisor_safety_configuration_id)
  %20 = load i32, ptr %13, align 4
  store i32 %20, ptr %7, align 4
  br label %35

21:                                               ; preds = %6
  %22 = load ptr, ptr %9, align 8
  %23 = load i32, ptr @hf_cip_ssupervisor_safety_configuration_id_sccrc, align 4
  %24 = load ptr, ptr %11, align 8
  %25 = load i32, ptr %12, align 4
  %26 = call ptr @proto_tree_add_item(ptr noundef %22, i32 noundef %23, ptr noundef %24, i32 noundef %25, i32 noundef 4, i32 noundef -2147483648)
  %27 = load ptr, ptr %9, align 8
  %28 = load ptr, ptr %11, align 8
  %29 = load ptr, ptr %8, align 8
  %30 = load i32, ptr %12, align 4
  %31 = add i32 %30, 4
  %32 = load i32, ptr @hf_cip_ssupervisor_safety_configuration_id_snn_timestamp, align 4
  %33 = load i32, ptr @hf_cip_ssupervisor_safety_configuration_id_snn_date, align 4
  %34 = load i32, ptr @hf_cip_ssupervisor_safety_configuration_id_snn_time, align 4
  call void @dissect_cipsafety_snn(ptr noundef %27, ptr noundef %28, ptr noundef %29, i32 noundef %31, i32 noundef %32, i32 noundef %33, i32 noundef %34)
  store i32 10, ptr %7, align 4
  br label %35

35:                                               ; preds = %21, %16
  %36 = load i32, ptr %7, align 4
  ret i32 %36
}