; Function Attrs: null_pointer_is_valid sspstrong uwtable
define internal range(i32 -2147483648, 11) i32 @dissect_s_supervisor_safety_configuration_id(ptr noundef %0, ptr noundef %1, ptr noundef %2, ptr noundef %3, i32 noundef %4, i32 noundef %5) #2 {
  %7 = icmp slt i32 %5, 10
  br i1 %7, label %8, label %10

8:                                                ; preds = %6
  %9 = tail call ptr @expert_add_info(ptr noundef %0, ptr noundef %2, ptr noundef nonnull @ei_mal_ssupervisor_safety_configuration_id)
  br label %dissect_cipsafety_snn.exit

10:                                               ; preds = %6
  %11 = load i32, ptr @hf_cip_ssupervisor_safety_configuration_id_sccrc, align 4
  %12 = tail call ptr @proto_tree_add_item(ptr noundef %1, i32 noundef %11, ptr noundef %3, i32 noundef %4, i32 noundef 4, i32 noundef -2147483648)
  %13 = add i32 %4, 4
  %14 = load i32, ptr @hf_cip_ssupervisor_safety_configuration_id_snn_timestamp, align 4
  %15 = load i32, ptr @hf_cip_ssupervisor_safety_configuration_id_snn_date, align 4
  %16 = load i32, ptr @hf_cip_ssupervisor_safety_configuration_id_snn_time, align 4
  %17 = add i32 %4, 8
  %18 = tail call zeroext i16 @tvb_get_letohs(ptr noundef %3, i32 noundef %17)
  %19 = add i16 %18, -11688
  %or.cond.i = icmp ult i16 %19, -11689
  br i1 %or.cond.i, label %20, label %21

20:                                               ; preds = %10
  tail call void @dissect_cip_date_and_time(ptr noundef %1, ptr noundef %3, i32 noundef %13, i32 noundef %14)
  br label %dissect_cipsafety_snn.exit

21:                                               ; preds = %10
  %22 = tail call ptr @proto_tree_add_item(ptr noundef %1, i32 noundef %16, ptr noundef %3, i32 noundef %13, i32 noundef 4, i32 noundef -2147483648)
  %23 = tail call ptr @proto_tree_add_item(ptr noundef %1, i32 noundef %15, ptr noundef %3, i32 noundef %17, i32 noundef 2, i32 noundef -2147483648)
  br label %dissect_cipsafety_snn.exit

dissect_cipsafety_snn.exit:                       ; preds = %21, %20, %8
  %.0 = phi i32 [ %5, %8 ], [ 10, %20 ], [ 10, %21 ]
  ret i32 %.0
}